target datalayout = "e-m:e-p270:32:32-p271:32:32-p272:64:64-i64:64-i128:128-f80:128-n8:16:32:64-S128"
target triple = "x86_64-pc-linux-gnu"

%struct.ForEachState = type { ptr, i32 }
%struct.PortalData = type { ptr, ptr, ptr, ptr, ptr, i32, i32, i32, ptr, i32, %struct.QueryCompletion, ptr, ptr, ptr, ptr, i32, i32, i32, i8, i8, ptr, ptr, ptr, ptr, ptr, ptr, ptr, i8, i8, i64, i64, i8 }
%struct.QueryCompletion = type { i32, i64 }
%struct.List = type { i32, i32, i32, ptr, [0 x %union.ListCell] }
%union.ListCell = type { ptr }
%struct.PlannedStmt = type { i32, i32, i64, i8, i8, i8, i8, i8, i8, i32, ptr, ptr, ptr, ptr, ptr, ptr, ptr, ptr, ptr, ptr, ptr, ptr, ptr, ptr, i32, i32 }

; Function Attrs: nounwind uwtable
define dso_local ptr @PortalGetPrimaryStmt(ptr noundef %0) #0 {
  %2 = alloca ptr, align 8
  %3 = alloca ptr, align 8
  %4 = alloca ptr, align 8
  %5 = alloca %struct.ForEachState, align 8
  %6 = alloca i32, align 4
  %7 = alloca ptr, align 8
  store ptr %0, ptr %3, align 8
  call void @llvm.lifetime.start.p0(i64 8, ptr %4) #6
  call void @llvm.lifetime.start.p0(i64 16, ptr %5) #6
  %8 = getelementptr inbounds nuw %struct.ForEachState, ptr %5, i32 0, i32 0
  %9 = load ptr, ptr %3, align 8
  %10 = getelementptr inbounds nuw %struct.PortalData, ptr %9, i32 0, i32 11
  %11 = load ptr, ptr %10, align 8
  store ptr %11, ptr %8, align 8
  %12 = getelementptr inbounds nuw %struct.ForEachState, ptr %5, i32 0, i32 1
  store i32 0, ptr %12, align 8
  %13 = getelementptr i8, ptr %5, i64 12
  call void @llvm.memset.p0.i64(ptr align 4 %13, i8 0, i64 4, i1 false)
  br label %14

14:                                               ; preds = %53, %1
  %15 = getelementptr inbounds nuw %struct.ForEachState, ptr %5, i32 0, i32 0
  %16 = load ptr, ptr %15, align 8
  %17 = icmp ne ptr %16, null
  br i1 %17, label %18, label %35

18:                                               ; preds = %14
  %19 = getelementptr inbounds nuw %struct.ForEachState, ptr %5, i32 0, i32 1
  %20 = load i32, ptr %19, align 8
  %21 = getelementptr inbounds nuw %struct.ForEachState, ptr %5, i32 0, i32 0
  %22 = load ptr, ptr %21, align 8
  %23 = getelementptr inbounds nuw %struct.List, ptr %22, i32 0, i32 1
  %24 = load i32, ptr %23, align 4
  %25 = icmp slt i32 %20, %24
  br i1 %25, label %26, label %35

26:                                               ; preds = %18
  %27 = getelementptr inbounds nuw %struct.ForEachState, ptr %5, i32 0, i32 0
  %28 = load ptr, ptr %27, align 8
  %29 = getelementptr inbounds nuw %struct.List, ptr %28, i32 0, i32 3
  %30 = load ptr, ptr %29, align 8
  %31 = getelementptr inbounds nuw %struct.ForEachState, ptr %5, i32 0, i32 1
  %32 = load i32, ptr %31, align 8
  %33 = sext i32 %32 to i64
  %34 = getelementptr inbounds %union.ListCell, ptr %30, i64 %33
  store ptr %34, ptr %4, align 8
  br label %36

35:                                               ; preds = %18, %14
  store ptr null, ptr %4, align 8
  br label %36

36:                                               ; preds = %35, %26
  %37 = phi i32 [ 1, %26 ], [ 0, %35 ]
  %38 = icmp ne i32 %37, 0
  br i1 %38, label %40, label %39

39:                                               ; preds = %36
  store i32 2, ptr %6, align 4
  br label %57

40:                                               ; preds = %36
  call void @llvm.lifetime.start.p0(i64 8, ptr %7) #6
  %41 = load ptr, ptr %4, align 8
  %42 = load ptr, ptr %41, align 8
  store ptr %42, ptr %7, align 8
  %43 = load ptr, ptr %7, align 8
  %44 = getelementptr inbounds nuw %struct.PlannedStmt, ptr %43, i32 0, i32 5
  %45 = load i8, ptr %44, align 2, !range !4, !noundef !5
  %46 = trunc i8 %45 to i1
  br i1 %46, label %47, label %49

47:                                               ; preds = %40
  %48 = load ptr, ptr %7, align 8
  store ptr %48, ptr %2, align 8
  store i32 1, ptr %6, align 4
  br label %50

49:                                               ; preds = %40
  store i32 0, ptr %6, align 4
  br label %50

50:                                               ; preds = %49, %47
  call void @llvm.lifetime.end.p0(i64 8, ptr %7) #6
  %51 = load i32, ptr %6, align 4
  switch i32 %51, label %57 [
    i32 0, label %52
  ]

52:                                               ; preds = %50
  br label %53

53:                                               ; preds = %52
  %54 = getelementptr inbounds nuw %struct.ForEachState, ptr %5, i32 0, i32 1
  %55 = load i32, ptr %54, align 8
  %56 = add i32 %55, 1
  store i32 %56, ptr %54, align 8
  br label %14, !llvm.loop !6

57:                                               ; preds = %50, %39
  call void @llvm.lifetime.end.p0(i64 16, ptr %5) #6
  %58 = load i32, ptr %6, align 4
  switch i32 %58, label %60 [
    i32 2, label %59
  ]

59:                                               ; preds = %57
  store ptr null, ptr %2, align 8
  store i32 1, ptr %6, align 4
  br label %60

60:                                               ; preds = %59, %57
  call void @llvm.lifetime.end.p0(i64 8, ptr %4) #6
  %61 = load ptr, ptr %2, align 8
  ret ptr %61
}