; Function Attrs: nofree norecurse nosync nounwind memory(read, inaccessiblemem: none) uwtable
define dso_local ptr @PortalGetPrimaryStmt(ptr noundef readonly captures(none) %0) local_unnamed_addr #3 {
  %2 = getelementptr inbounds nuw i8, ptr %0, i64 88
  %3 = load ptr, ptr %2, align 8
  %.not = icmp eq ptr %3, null
  br i1 %.not, label %._crit_edge23, label %.lr.ph

.lr.ph:                                           ; preds = %1
  %4 = getelementptr inbounds nuw i8, ptr %3, i64 4
  %5 = load i32, ptr %4, align 4
  %6 = icmp sgt i32 %5, 0
  br i1 %6, label %.lr.ph30, label %._crit_edge23

.lr.ph30:                                         ; preds = %.lr.ph
  %7 = getelementptr inbounds nuw i8, ptr %3, i64 16
  %8 = load ptr, ptr %7, align 8
  %wide.trip.count = zext nneg i32 %5 to i64
  br label %10

9:                                                ; preds = %10
  %indvars.iv.next = add nuw nsw i64 %indvars.iv, 1
  %exitcond.not = icmp eq i64 %indvars.iv.next, %wide.trip.count
  br i1 %exitcond.not, label %._crit_edge23, label %10

10:                                               ; preds = %.lr.ph30, %9
  %indvars.iv = phi i64 [ 0, %.lr.ph30 ], [ %indvars.iv.next, %9 ]
  %11 = getelementptr inbounds nuw %union.ListCell, ptr %8, i64 %indvars.iv
  %12 = load ptr, ptr %11, align 8
  %13 = getelementptr inbounds nuw i8, ptr %12, i64 18
  %14 = load i8, ptr %13, align 2, !range !4, !noundef !5
  %15 = trunc nuw i8 %14 to i1
  br i1 %15, label %._crit_edge23, label %9

._crit_edge23:                                    ; preds = %10, %9, %.lr.ph, %1
  %16 = phi ptr [ null, %1 ], [ null, %.lr.ph ], [ null, %9 ], [ %12, %10 ]
  ret ptr %16
}